target datalayout = "e-m:e-p270:32:32-p271:32:32-p272:64:64-i64:64-i128:128-f80:128-n8:16:32:64-S128"
target triple = "x86_64-pc-linux-gnu"

%struct._object = type { %union.anon.26, ptr }
%union.anon.26 = type { i64 }
%struct.PyCompilerFlags = type { i32, i32 }
%struct._PyCompiler = type { ptr, ptr, %struct._PyFutureFeatures, %struct.PyCompilerFlags, i32, i32, ptr, ptr, ptr, i8 }
%struct._PyFutureFeatures = type { i32, %struct._Py_SourceLocation }
%struct._Py_SourceLocation = type { i32, i32, i32, i32 }
%struct.compiler_unit = type { ptr, i32, ptr, ptr, ptr, ptr, i32, i32, [21 x %struct._PyCompile_FBlockInfo], %struct._PyCompile_CodeUnitMetadata }
%struct._PyCompile_FBlockInfo = type { i32, %struct._PyJumpTargetLabel, %struct._Py_SourceLocation, %struct._PyJumpTargetLabel, ptr }
%struct._PyJumpTargetLabel = type { i32 }
%struct._PyCompile_CodeUnitMetadata = type { ptr, ptr, ptr, ptr, ptr, ptr, ptr, ptr, i64, i64, i64, i32 }
%struct._symtable_entry = type { %struct._object, ptr, ptr, ptr, ptr, ptr, ptr, ptr, i32, ptr, i32, i8, i32, i16, i32, %struct._Py_SourceLocation, ptr, ptr }

@.str.5 = private unnamed_addr constant [10 x i8] c"__class__\00", align 1
@.str.6 = private unnamed_addr constant [14 x i8] c"__classdict__\00", align 1
@PyExc_SystemError = external global ptr, align 8
@.str.7 = private unnamed_addr constant [100 x i8] c"_PyST_GetScope(name=%R) failed: unknown scope in unit %S (%R); symbols: %R; locals: %R; globals: %R\00", align 1

; Function Attrs: nounwind uwtable
define hidden i32 @_PyCompile_GetRefType(ptr noundef %0, ptr noundef %1) #0 {
  %3 = alloca i32, align 4
  %4 = alloca ptr, align 8
  %5 = alloca ptr, align 8
  %6 = alloca ptr, align 8
  %7 = alloca i32, align 4
  %8 = alloca i32, align 4
  store ptr %0, ptr %4, align 8, !tbaa !4
  store ptr %1, ptr %5, align 8, !tbaa !32
  %9 = load ptr, ptr %4, align 8, !tbaa !4
  %10 = getelementptr inbounds nuw %struct._PyCompiler, ptr %9, i32 0, i32 7
  %11 = load ptr, ptr %10, align 8, !tbaa !48
  %12 = getelementptr inbounds nuw %struct.compiler_unit, ptr %11, i32 0, i32 1
  %13 = load i32, ptr %12, align 8, !tbaa !34
  %14 = icmp eq i32 %13, 1
  br i1 %14, label %15, label %24

15:                                               ; preds = %2
  %16 = load ptr, ptr %5, align 8, !tbaa !32
  %17 = call i32 @_PyUnicode_EqualToASCIIString(ptr noundef %16, ptr noundef @.str.5)
  %18 = icmp ne i32 %17, 0
  br i1 %18, label %23, label %19

19:                                               ; preds = %15
  %20 = load ptr, ptr %5, align 8, !tbaa !32
  %21 = call i32 @_PyUnicode_EqualToASCIIString(ptr noundef %20, ptr noundef @.str.6)
  %22 = icmp ne i32 %21, 0
  br i1 %22, label %23, label %24

23:                                               ; preds = %19, %15
  store i32 5, ptr %3, align 4
  br label %66

24:                                               ; preds = %19, %2
  call void @llvm.lifetime.start.p0(i64 8, ptr %6) #8
  %25 = load ptr, ptr %4, align 8, !tbaa !4
  %26 = getelementptr inbounds nuw %struct._PyCompiler, ptr %25, i32 0, i32 7
  %27 = load ptr, ptr %26, align 8, !tbaa !48
  %28 = getelementptr inbounds nuw %struct.compiler_unit, ptr %27, i32 0, i32 0
  %29 = load ptr, ptr %28, align 8, !tbaa !56
  store ptr %29, ptr %6, align 8, !tbaa !78
  call void @llvm.lifetime.start.p0(i64 4, ptr %7) #8
  %30 = load ptr, ptr %6, align 8, !tbaa !78
  %31 = load ptr, ptr %5, align 8, !tbaa !32
  %32 = call i32 @_PyST_GetScope(ptr noundef %30, ptr noundef %31)
  store i32 %32, ptr %7, align 4, !tbaa !50
  %33 = load i32, ptr %7, align 4, !tbaa !50
  %34 = icmp eq i32 %33, 0
  br i1 %34, label %35, label %63

35:                                               ; preds = %24
  %36 = load ptr, ptr @PyExc_SystemError, align 8, !tbaa !32
  %37 = load ptr, ptr %5, align 8, !tbaa !32
  %38 = load ptr, ptr %4, align 8, !tbaa !4
  %39 = getelementptr inbounds nuw %struct._PyCompiler, ptr %38, i32 0, i32 7
  %40 = load ptr, ptr %39, align 8, !tbaa !48
  %41 = getelementptr inbounds nuw %struct.compiler_unit, ptr %40, i32 0, i32 9
  %42 = getelementptr inbounds nuw %struct._PyCompile_CodeUnitMetadata, ptr %41, i32 0, i32 0
  %43 = load ptr, ptr %42, align 8, !tbaa !57
  %44 = load ptr, ptr %6, align 8, !tbaa !78
  %45 = getelementptr inbounds nuw %struct._symtable_entry, ptr %44, i32 0, i32 1
  %46 = load ptr, ptr %45, align 8, !tbaa !98
  %47 = load ptr, ptr %6, align 8, !tbaa !78
  %48 = getelementptr inbounds nuw %struct._symtable_entry, ptr %47, i32 0, i32 2
  %49 = load ptr, ptr %48, align 8, !tbaa !62
  %50 = load ptr, ptr %4, align 8, !tbaa !4
  %51 = getelementptr inbounds nuw %struct._PyCompiler, ptr %50, i32 0, i32 7
  %52 = load ptr, ptr %51, align 8, !tbaa !48
  %53 = getelementptr inbounds nuw %struct.compiler_unit, ptr %52, i32 0, i32 9
  %54 = getelementptr inbounds nuw %struct._PyCompile_CodeUnitMetadata, ptr %53, i32 0, i32 4
  %55 = load ptr, ptr %54, align 8, !tbaa !61
  %56 = load ptr, ptr %4, align 8, !tbaa !4
  %57 = getelementptr inbounds nuw %struct._PyCompiler, ptr %56, i32 0, i32 7
  %58 = load ptr, ptr %57, align 8, !tbaa !48
  %59 = getelementptr inbounds nuw %struct.compiler_unit, ptr %58, i32 0, i32 9
  %60 = getelementptr inbounds nuw %struct._PyCompile_CodeUnitMetadata, ptr %59, i32 0, i32 3
  %61 = load ptr, ptr %60, align 8, !tbaa !69
  %62 = call ptr (ptr, ptr, ...) @PyErr_Format(ptr noundef %36, ptr noundef @.str.7, ptr noundef %37, ptr noundef %43, ptr noundef %46, ptr noundef %49, ptr noundef %55, ptr noundef %61)
  store i32 -1, ptr %3, align 4
  store i32 1, ptr %8, align 4
  br label %65

63:                                               ; preds = %24
  %64 = load i32, ptr %7, align 4, !tbaa !50
  store i32 %64, ptr %3, align 4
  store i32 1, ptr %8, align 4
  br label %65

65:                                               ; preds = %63, %35
  call void @llvm.lifetime.end.p0(i64 4, ptr %7) #8
  call void @llvm.lifetime.end.p0(i64 8, ptr %6) #8
  br label %66

66:                                               ; preds = %65, %23
  %67 = load i32, ptr %3, align 4
  ret i32 %67
}