; Function Attrs: nounwind uwtable
define hidden range(i32 1, 0) i32 @_PyCompile_GetRefType(ptr noundef readonly captures(none) %0, ptr noundef %1) local_unnamed_addr #0 {
  %3 = getelementptr inbounds nuw i8, ptr %0, i64 64
  %4 = load ptr, ptr %3, align 8, !tbaa !42
  %5 = getelementptr inbounds nuw i8, ptr %4, i64 8
  %6 = load i32, ptr %5, align 8, !tbaa !29
  %7 = icmp eq i32 %6, 1
  br i1 %7, label %8, label %12

8:                                                ; preds = %2
  %9 = tail call i32 @_PyUnicode_EqualToASCIIString(ptr noundef %1, ptr noundef nonnull @.str.5) #11
  %.not = icmp eq i32 %9, 0
  br i1 %.not, label %10, label %31

10:                                               ; preds = %8
  %11 = tail call i32 @_PyUnicode_EqualToASCIIString(ptr noundef %1, ptr noundef nonnull @.str.6) #11
  %.not15 = icmp eq i32 %11, 0
  br i1 %.not15, label %._crit_edge, label %31

._crit_edge:                                      ; preds = %10
  %.pre = load ptr, ptr %3, align 8, !tbaa !42
  br label %12

12:                                               ; preds = %._crit_edge, %2
  %13 = phi ptr [ %.pre, %._crit_edge ], [ %4, %2 ]
  %14 = load ptr, ptr %13, align 8, !tbaa !48
  %15 = tail call i32 @_PyST_GetScope(ptr noundef %14, ptr noundef %1) #11
  %16 = icmp eq i32 %15, 0
  br i1 %16, label %17, label %31

17:                                               ; preds = %12
  %18 = load ptr, ptr @PyExc_SystemError, align 8, !tbaa !28
  %19 = load ptr, ptr %3, align 8, !tbaa !42
  %20 = getelementptr inbounds nuw i8, ptr %19, i64 896
  %21 = load ptr, ptr %20, align 8, !tbaa !49
  %22 = getelementptr inbounds nuw i8, ptr %14, i64 16
  %23 = load ptr, ptr %22, align 8, !tbaa !78
  %24 = getelementptr inbounds nuw i8, ptr %14, i64 24
  %25 = load ptr, ptr %24, align 8, !tbaa !55
  %26 = getelementptr inbounds nuw i8, ptr %19, i64 928
  %27 = load ptr, ptr %26, align 8, !tbaa !54
  %28 = getelementptr inbounds nuw i8, ptr %19, i64 920
  %29 = load ptr, ptr %28, align 8, !tbaa !62
  %30 = tail call ptr (ptr, ptr, ...) @PyErr_Format(ptr noundef %18, ptr noundef nonnull @.str.7, ptr noundef %1, ptr noundef %21, ptr noundef %23, ptr noundef %25, ptr noundef %27, ptr noundef %29) #11
  br label %31

31:                                               ; preds = %17, %12, %8, %10
  %.0 = phi i32 [ 5, %10 ], [ 5, %8 ], [ -1, %17 ], [ %15, %12 ]
  ret i32 %.0
}